target datalayout = "e-m:e-p270:32:32-p271:32:32-p272:64:64-i64:64-i128:128-f80:128-n8:16:32:64-S128"
target triple = "x86_64-pc-linux-gnu"

%"class.std::__cxx11::basic_string" = type { %"struct.std::__cxx11::basic_string<char>::_Alloc_hider", i64, %union.anon }
%"struct.std::__cxx11::basic_string<char>::_Alloc_hider" = type { ptr }
%union.anon = type { i64, [8 x i8] }

@.str.4 = private unnamed_addr constant [1 x i8] zeroinitializer, align 1

; Function Attrs: mustprogress nounwind uwtable
define linkonce_odr noundef i64 @_ZNSt11char_traitsIcE6lengthEPKc(ptr noundef %0) #3 comdat align 2 {
  %2 = alloca ptr, align 8
  store ptr %0, ptr %2, align 8, !tbaa !99
  %3 = load ptr, ptr %2, align 8, !tbaa !99
  %4 = call i64 @strlen(ptr noundef %3) #18
  ret i64 %4
}

; Function Attrs: mustprogress nounwind uwtable
define available_externally noundef i64 @_ZNKSt7__cxx1112basic_stringIcSt11char_traitsIcESaIcEE4sizeEv(ptr noundef nonnull align 8 dereferenceable(32) %0) #3 align 2 {
  %2 = alloca ptr, align 8
  store ptr %0, ptr %2, align 8, !tbaa !9
  %3 = load ptr, ptr %2, align 8
  %4 = getelementptr inbounds nuw %"class.std::__cxx11::basic_string", ptr %3, i32 0, i32 1
  %5 = load i64, ptr %4, align 8, !tbaa !254
  ret i64 %5
}

; Function Attrs: mustprogress uwtable
define available_externally noundef nonnull align 8 dereferenceable(32) ptr @_ZNSt7__cxx1112basic_stringIcSt11char_traitsIcESaIcEE6assignEPKc(ptr noundef nonnull align 8 dereferenceable(32) %0, ptr noundef %1) #0 align 2 {
  %3 = alloca ptr, align 8
  %4 = alloca ptr, align 8
  store ptr %0, ptr %3, align 8, !tbaa !9
  store ptr %1, ptr %4, align 8, !tbaa !99
  %5 = load ptr, ptr %3, align 8
  %6 = call noundef i64 @_ZNKSt7__cxx1112basic_stringIcSt11char_traitsIcESaIcEE4sizeEv(ptr noundef nonnull align 8 dereferenceable(32) %5) #18
  %7 = load ptr, ptr %4, align 8, !tbaa !99
  %8 = load ptr, ptr %4, align 8, !tbaa !99
  %9 = call noundef i64 @_ZNSt11char_traitsIcE6lengthEPKc(ptr noundef %8)
  %10 = call noundef nonnull align 8 dereferenceable(32) ptr @_ZNSt7__cxx1112basic_stringIcSt11char_traitsIcESaIcEE10_M_replaceEmmPKcm(ptr noundef nonnull align 8 dereferenceable(32) %5, i64 noundef 0, i64 noundef %6, ptr noundef %7, i64 noundef %9)
  ret ptr %10
}

; Function Attrs: mustprogress uwtable
define available_externally noundef nonnull align 8 dereferenceable(32) ptr @_ZNSt7__cxx1112basic_stringIcSt11char_traitsIcESaIcEEaSEPKc(ptr noundef nonnull align 8 dereferenceable(32) %0, ptr noundef %1) #0 align 2 {
  %3 = alloca ptr, align 8
  %4 = alloca ptr, align 8
  store ptr %0, ptr %3, align 8, !tbaa !9
  store ptr %1, ptr %4, align 8, !tbaa !99
  %5 = load ptr, ptr %3, align 8
  %6 = load ptr, ptr %4, align 8, !tbaa !99
  %7 = call noundef nonnull align 8 dereferenceable(32) ptr @_ZNSt7__cxx1112basic_stringIcSt11char_traitsIcESaIcEE6assignEPKc(ptr noundef nonnull align 8 dereferenceable(32) %5, ptr noundef %6)
  ret ptr %7
}

; Function Attrs: mustprogress uwtable
define noundef zeroext i1 @_ZNK7rocksdb12Configurable15OptionsAreEqualERKNS_13ConfigOptionsERKNS_14OptionTypeInfoERKNSt7__cxx1112basic_stringIcSt11char_traitsIcESaIcEEEPKvSG_PSC_(ptr noundef nonnull align 8 dereferenceable(32) %0, ptr noundef nonnull align 8 dereferenceable(80) %1, ptr noundef nonnull align 8 dereferenceable(180) %2, ptr noundef nonnull align 8 dereferenceable(32) %3, ptr noundef %4, ptr noundef %5, ptr noundef %6) unnamed_addr #0 align 2 {
  %8 = alloca i1, align 1
  %9 = alloca ptr, align 8
  %10 = alloca ptr, align 8
  %11 = alloca ptr, align 8
  %12 = alloca ptr, align 8
  %13 = alloca ptr, align 8
  %14 = alloca ptr, align 8
  %15 = alloca ptr, align 8
  store ptr %0, ptr %9, align 8, !tbaa !4
  store ptr %1, ptr %10, align 8, !tbaa !28
  store ptr %2, ptr %11, align 8, !tbaa !32
  store ptr %3, ptr %12, align 8, !tbaa !9
  store ptr %4, ptr %13, align 8, !tbaa !11
  store ptr %5, ptr %14, align 8, !tbaa !11
  store ptr %6, ptr %15, align 8, !tbaa !9
  %16 = load ptr, ptr %11, align 8, !tbaa !32
  %17 = load ptr, ptr %10, align 8, !tbaa !28
  %18 = load ptr, ptr %12, align 8, !tbaa !9
  %19 = load ptr, ptr %13, align 8, !tbaa !11
  %20 = load ptr, ptr %14, align 8, !tbaa !11
  %21 = load ptr, ptr %15, align 8, !tbaa !9
  %22 = call noundef zeroext i1 @_ZNK7rocksdb14OptionTypeInfo8AreEqualERKNS_13ConfigOptionsERKNSt7__cxx1112basic_stringIcSt11char_traitsIcESaIcEEEPKvSD_PS9_(ptr noundef nonnull align 8 dereferenceable(180) %16, ptr noundef nonnull align 8 dereferenceable(80) %17, ptr noundef nonnull align 8 dereferenceable(32) %18, ptr noundef %19, ptr noundef %20, ptr noundef %21)
  br i1 %22, label %23, label %24

23:                                               ; preds = %7
  store i1 true, ptr %8, align 1
  br label %35

24:                                               ; preds = %7
  %25 = load ptr, ptr %11, align 8, !tbaa !32
  %26 = load ptr, ptr %10, align 8, !tbaa !28
  %27 = load ptr, ptr %12, align 8, !tbaa !9
  %28 = load ptr, ptr %13, align 8, !tbaa !11
  %29 = load ptr, ptr %14, align 8, !tbaa !11
  %30 = call noundef zeroext i1 @_ZNK7rocksdb14OptionTypeInfo14AreEqualByNameERKNS_13ConfigOptionsERKNSt7__cxx1112basic_stringIcSt11char_traitsIcESaIcEEEPKvSD_(ptr noundef nonnull align 8 dereferenceable(180) %25, ptr noundef nonnull align 8 dereferenceable(80) %26, ptr noundef nonnull align 8 dereferenceable(32) %27, ptr noundef %28, ptr noundef %29)
  br i1 %30, label %31, label %34

31:                                               ; preds = %24
  %32 = load ptr, ptr %15, align 8, !tbaa !9
  %33 = call noundef nonnull align 8 dereferenceable(32) ptr @_ZNSt7__cxx1112basic_stringIcSt11char_traitsIcESaIcEEaSEPKc(ptr noundef nonnull align 8 dereferenceable(32) %32, ptr noundef @.str.4)
  store i1 true, ptr %8, align 1
  br label %35

34:                                               ; preds = %24
  store i1 false, ptr %8, align 1
  br label %35

35:                                               ; preds = %34, %31, %23
  %36 = load i1, ptr %8, align 1
  ret i1 %36
}