; Function Attrs: mustprogress uwtable
define noundef zeroext i1 @_ZNK7rocksdb12Configurable15OptionsAreEqualERKNS_13ConfigOptionsERKNS_14OptionTypeInfoERKNSt7__cxx1112basic_stringIcSt11char_traitsIcESaIcEEEPKvSG_PSC_(ptr nonnull readnone align 8 captures(none) %0, ptr noundef nonnull align 8 dereferenceable(80) %1, ptr noundef nonnull align 8 dereferenceable(180) %2, ptr noundef nonnull align 8 dereferenceable(32) %3, ptr noundef %4, ptr noundef %5, ptr noundef %6) unnamed_addr #0 align 2 {
  %8 = tail call noundef zeroext i1 @_ZNK7rocksdb14OptionTypeInfo8AreEqualERKNS_13ConfigOptionsERKNSt7__cxx1112basic_stringIcSt11char_traitsIcESaIcEEEPKvSD_PS9_(ptr noundef nonnull align 8 dereferenceable(180) %2, ptr noundef nonnull align 8 dereferenceable(80) %1, ptr noundef nonnull align 8 dereferenceable(32) %3, ptr noundef %4, ptr noundef %5, ptr noundef %6)
  br i1 %8, label %15, label %9

9:                                                ; preds = %7
  %10 = tail call noundef zeroext i1 @_ZNK7rocksdb14OptionTypeInfo14AreEqualByNameERKNS_13ConfigOptionsERKNSt7__cxx1112basic_stringIcSt11char_traitsIcESaIcEEEPKvSD_(ptr noundef nonnull align 8 dereferenceable(180) %2, ptr noundef nonnull align 8 dereferenceable(80) %1, ptr noundef nonnull align 8 dereferenceable(32) %3, ptr noundef %4, ptr noundef %5)
  br i1 %10, label %11, label %15

11:                                               ; preds = %9
  %12 = getelementptr inbounds nuw i8, ptr %6, i64 8
  %13 = load i64, ptr %12, align 8, !tbaa !10
  %14 = tail call noundef nonnull align 8 dereferenceable(32) ptr @_ZNSt7__cxx1112basic_stringIcSt11char_traitsIcESaIcEE10_M_replaceEmmPKcm(ptr noundef nonnull align 8 dereferenceable(32) %6, i64 noundef 0, i64 noundef %13, ptr noundef nonnull @.str.4, i64 noundef 0)
  br label %15

15:                                               ; preds = %9, %7, %11
  %.0 = phi i1 [ true, %11 ], [ true, %7 ], [ false, %9 ]
  ret i1 %.0
}